---
triple:          'arm64-apple-darwin'
binary-path:     '/Users/theo8338/Documents/lucrari/leetcode/output/main'
relocations:
  - { offsetInCU: 0x3F, offset: 0x3F, size: 0x8, addend: 0x0, symName: _mp, symObjAddr: 0x36AF0, symBinAddr: 0x10000C000, symSize: 0x0 }
  - { offsetInCU: 0x8F67, offset: 0x8F67, size: 0x8, addend: 0x0, symName: __ZNSt3__130__libcpp_is_constant_evaluatedB7v160006Ev, symObjAddr: 0xE5C, symBinAddr: 0x10000447C, symSize: 0xC }
  - { offsetInCU: 0x8F84, offset: 0x8F84, size: 0x8, addend: 0x0, symName: __ZNSt3__119__libcpp_deallocateB7v160006EPvmm, symObjAddr: 0xE68, symBinAddr: 0x100004488, symSize: 0x30 }
  - { offsetInCU: 0x8FCC, offset: 0x8FCC, size: 0x8, addend: 0x0, symName: __ZNSt3__127__do_deallocate_handle_sizeB7v160006IJEEEvPvmDpT_, symObjAddr: 0xE98, symBinAddr: 0x1000044B8, symSize: 0x28 }
  - { offsetInCU: 0x900A, offset: 0x900A, size: 0x8, addend: 0x0, symName: __ZNSt3__124__libcpp_operator_deleteB7v160006IJPvEEEvDpT_, symObjAddr: 0xEC0, symBinAddr: 0x1000044E0, symSize: 0x24 }
  - { offsetInCU: 0x903F, offset: 0x903F, size: 0x8, addend: 0x0, symName: __ZNSt3__119__debug_db_insert_cB7v160006INS_6vectorIiNS_9allocatorIiEEEEEEvPT_, symObjAddr: 0xFD0, symBinAddr: 0x1000045F0, symSize: 0x10 }
  - { offsetInCU: 0x9070, offset: 0x9070, size: 0x8, addend: 0x0, symName: __ZNSt3__118__debug_db_erase_cB7v160006INS_6vectorIiNS_9allocatorIiEEEEEEvPT_, symObjAddr: 0x128C, symBinAddr: 0x1000048AC, symSize: 0x10 }
  - { offsetInCU: 0x90A1, offset: 0x90A1, size: 0x8, addend: 0x0, symName: __ZNSt3__112__to_addressB7v160006IiEEPT_S2_, symObjAddr: 0x13A8, symBinAddr: 0x1000049C8, symSize: 0x14 }
  - { offsetInCU: 0x90D6, offset: 0x90D6, size: 0x8, addend: 0x0, symName: __ZNSt3__13maxB7v160006ImEERKT_S3_S3_, symObjAddr: 0x1D38, symBinAddr: 0x100005358, symSize: 0x2C }
  - { offsetInCU: 0x9119, offset: 0x9119, size: 0x8, addend: 0x0, symName: __ZNSt3__13minB7v160006ImEERKT_S3_S3_, symObjAddr: 0x1D64, symBinAddr: 0x100005384, symSize: 0x2C }
  - { offsetInCU: 0x935D, offset: 0x935D, size: 0x8, addend: 0x0, symName: __ZNSt3__13minB7v160006ImNS_6__lessImmEEEERKT_S5_S5_T0_, symObjAddr: 0x1DF0, symBinAddr: 0x100005410, symSize: 0x54 }
  - { offsetInCU: 0x93F2, offset: 0x93F2, size: 0x8, addend: 0x0, symName: __ZNSt3__120__throw_length_errorB7v160006EPKc, symObjAddr: 0x1ECC, symBinAddr: 0x1000054EC, symSize: 0x64 }
  - { offsetInCU: 0x941A, offset: 0x941A, size: 0x8, addend: 0x0, symName: __ZNSt3__13maxB7v160006ImNS_6__lessImmEEEERKT_S5_S5_T0_, symObjAddr: 0x1FB0, symBinAddr: 0x1000055D0, symSize: 0x54 }
  - { offsetInCU: 0x9474, offset: 0x9474, size: 0x8, addend: 0x0, symName: __ZNSt3__119__allocate_at_leastB7v160006INS_9allocatorIiEEEENS_19__allocation_resultINS_16allocator_traitsIT_E7pointerEEERS5_m, symObjAddr: 0x2114, symBinAddr: 0x100005734, symSize: 0x40 }
  - { offsetInCU: 0x94B7, offset: 0x94B7, size: 0x8, addend: 0x0, symName: __ZNSt3__117__libcpp_allocateB7v160006Emm, symObjAddr: 0x22C4, symBinAddr: 0x1000058E4, symSize: 0x28 }
  - { offsetInCU: 0x94F4, offset: 0x94F4, size: 0x8, addend: 0x0, symName: __ZNSt3__121__libcpp_operator_newB7v160006IJmEEEPvDpT_, symObjAddr: 0x22EC, symBinAddr: 0x10000590C, symSize: 0x24 }
  - { offsetInCU: 0x952D, offset: 0x952D, size: 0x8, addend: 0x0, symName: __ZNSt3__142__uninitialized_allocator_move_if_noexceptB7v160006INS_9allocatorIiEENS_16reverse_iteratorIPiEES5_ivEET1_RT_T0_S9_S6_, symObjAddr: 0x2374, symBinAddr: 0x100005994, symSize: 0xE8 }
  - { offsetInCU: 0x95AA, offset: 0x95AA, size: 0x8, addend: 0x0, symName: __ZNSt3__14swapB7v160006IPiEEvRT_S3_, symObjAddr: 0x24A8, symBinAddr: 0x100005AC8, symSize: 0x3C }
  - { offsetInCU: 0x95FB, offset: 0x95FB, size: 0x8, addend: 0x0, symName: __ZNSt3__125__debug_db_invalidate_allB7v160006INS_6vectorIiNS_9allocatorIiEEEEEEvPT_, symObjAddr: 0x2590, symBinAddr: 0x100005BB0, symSize: 0x10 }
  - { offsetInCU: 0x962C, offset: 0x962C, size: 0x8, addend: 0x0, symName: __ZNSt3__1neB7v160006IPiS1_EEbRKNS_16reverse_iteratorIT_EERKNS2_IT0_EE, symObjAddr: 0x25A0, symBinAddr: 0x100005BC0, symSize: 0x48 }
  - { offsetInCU: 0x969D, offset: 0x969D, size: 0x8, addend: 0x0, symName: __ZNSt3__114__construct_atB7v160006IiJiEPiEEPT_S3_DpOT0_, symObjAddr: 0x25E8, symBinAddr: 0x100005C08, symSize: 0x2C }
  - { offsetInCU: 0x970D, offset: 0x970D, size: 0x8, addend: 0x0, symName: __ZNSt3__112__to_addressB7v160006INS_16reverse_iteratorIPiEEvEENS_5decayIDTclsr19__to_address_helperIT_EE6__callclsr3stdE7declvalIRKS5_EEEEE4typeES7_, symObjAddr: 0x2614, symBinAddr: 0x100005C34, symSize: 0x24 }
  - { offsetInCU: 0x9743, offset: 0x9743, size: 0x8, addend: 0x0, symName: __ZNSt3__14moveB7v160006INS_16reverse_iteratorIPiEES3_EET0_T_S5_S4_, symObjAddr: 0x2680, symBinAddr: 0x100005CA0, symSize: 0x78 }
  - { offsetInCU: 0x97C6, offset: 0x97C6, size: 0x8, addend: 0x0, symName: __ZNSt3__16__moveB7v160006INS_17_ClassicAlgPolicyENS_16reverse_iteratorIPiEES4_S4_EENS_4pairIT0_T2_EES6_T1_S7_, symObjAddr: 0x2768, symBinAddr: 0x100005D88, symSize: 0x64 }
  - { offsetInCU: 0x9832, offset: 0x9832, size: 0x8, addend: 0x0, symName: __ZNSt3__123__dispatch_copy_or_moveB7v160006INS_17_ClassicAlgPolicyENS_11__move_loopIS1_EENS_14__move_trivialENS_16reverse_iteratorIPiEES7_S7_EENS_4pairIT2_T4_EES9_T3_SA_, symObjAddr: 0x27CC, symBinAddr: 0x100005DEC, symSize: 0x7C }
  - { offsetInCU: 0x98B0, offset: 0x98B0, size: 0x8, addend: 0x0, symName: __ZNSt3__121__unwrap_and_dispatchB7v160006INS_10__overloadINS_11__move_loopINS_17_ClassicAlgPolicyEEENS_14__move_trivialEEENS_16reverse_iteratorIPiEES9_S9_Li0EEENS_4pairIT0_T2_EESB_T1_SC_, symObjAddr: 0x2848, symBinAddr: 0x100005E68, symSize: 0x12C }
  - { offsetInCU: 0x9940, offset: 0x9940, size: 0x8, addend: 0x0, symName: __ZNSt3__114__unwrap_rangeB7v160006INS_16reverse_iteratorIPiEES3_EENS_4pairIT0_S5_EET_S7_, symObjAddr: 0x2974, symBinAddr: 0x100005F94, symSize: 0x84 }
  - { offsetInCU: 0x9A94, offset: 0x9A94, size: 0x8, addend: 0x0, symName: __ZNSt3__113__unwrap_iterB7v160006INS_16reverse_iteratorIPiEENS_18__unwrap_iter_implIS3_Lb0EEELi0EEEDTclsrT0_8__unwrapclsr3stdE7declvalIT_EEEES7_, symObjAddr: 0x2A98, symBinAddr: 0x1000060B8, symSize: 0x44 }
  - { offsetInCU: 0x9AD8, offset: 0x9AD8, size: 0x8, addend: 0x0, symName: __ZNSt3__19make_pairB7v160006INS_16reverse_iteratorIPiEES3_EENS_4pairINS_18__unwrap_ref_decayIT_E4typeENS5_IT0_E4typeEEEOS6_OS9_, symObjAddr: 0x2ADC, symBinAddr: 0x1000060FC, symSize: 0x38 }
  - { offsetInCU: 0x9B27, offset: 0x9B27, size: 0x8, addend: 0x0, symName: __ZNSt3__114__rewrap_rangeB7v160006INS_16reverse_iteratorIPiEES3_EET_S4_T0_, symObjAddr: 0x2B14, symBinAddr: 0x100006134, symSize: 0x5C }
  - { offsetInCU: 0x9B73, offset: 0x9B73, size: 0x8, addend: 0x0, symName: __ZNSt3__113__rewrap_iterB7v160006INS_16reverse_iteratorIPiEES3_NS_18__unwrap_iter_implIS3_Lb0EEEEET_S6_T0_, symObjAddr: 0x2B70, symBinAddr: 0x100006190, symSize: 0x88 }
  - { offsetInCU: 0x9C98, offset: 0x9C98, size: 0x8, addend: 0x0, symName: __ZNSt3__127__tree_balance_after_insertB7v160006IPNS_16__tree_node_baseIPvEEEEvT_S5_, symObjAddr: 0x38A8, symBinAddr: 0x100006EC8, symSize: 0x340 }
  - { offsetInCU: 0x9D0C, offset: 0x9D0C, size: 0x8, addend: 0x0, symName: __ZNSt3__120__tree_is_left_childB7v160006IPNS_16__tree_node_baseIPvEEEEbT_, symObjAddr: 0x3C28, symBinAddr: 0x100007248, symSize: 0x2C }
  - { offsetInCU: 0x9D41, offset: 0x9D41, size: 0x8, addend: 0x0, symName: __ZNSt3__118__tree_left_rotateB7v160006IPNS_16__tree_node_baseIPvEEEEvT_, symObjAddr: 0x3C54, symBinAddr: 0x100007274, symSize: 0xEC }
  - { offsetInCU: 0x9D83, offset: 0x9D83, size: 0x8, addend: 0x0, symName: __ZNSt3__119__tree_right_rotateB7v160006IPNS_16__tree_node_baseIPvEEEEvT_, symObjAddr: 0x3D40, symBinAddr: 0x100007360, symSize: 0xCC }
  - { offsetInCU: 0x9FA3, offset: 0x9FA3, size: 0x8, addend: 0x0, symName: __ZSt28__throw_bad_array_new_lengthB7v160006v, symObjAddr: 0x2290, symBinAddr: 0x1000058B0, symSize: 0x34 }
  - { offsetInCU: 0xA38B, offset: 0xA38B, size: 0x8, addend: 0x0, symName: _nums, symObjAddr: 0x36B08, symBinAddr: 0x10000C018, symSize: 0x0 }
  - { offsetInCU: 0xA516, offset: 0xA516, size: 0x8, addend: 0x0, symName: _fin, symObjAddr: 0x36B20, symBinAddr: 0x10000C030, symSize: 0x0 }
  - { offsetInCU: 0xABE3, offset: 0xABE3, size: 0x8, addend: 0x0, symName: __ZNSt3__16vectorIiNS_9allocatorIiEEE26__swap_out_circular_bufferERNS_14__split_bufferIiRS2_EE, symObjAddr: 0x1B64, symBinAddr: 0x100005184, symSize: 0x118 }
  - { offsetInCU: 0xCBE5, offset: 0xCBE5, size: 0x8, addend: 0x0, symName: __ZNSt3__13mapIibNS_4lessIiEENS_9allocatorINS_4pairIKibEEEEEC1B7v160006Ev, symObjAddr: 0x0, symBinAddr: 0x100003620, symSize: 0x2C }
  - { offsetInCU: 0xCC0F, offset: 0xCC0F, size: 0x8, addend: 0x0, symName: __ZNSt3__13mapIibNS_4lessIiEENS_9allocatorINS_4pairIKibEEEEED1B7v160006Ev, symObjAddr: 0x2C, symBinAddr: 0x10000364C, symSize: 0x2C }
  - { offsetInCU: 0xCC39, offset: 0xCC39, size: 0x8, addend: 0x0, symName: __ZNSt3__16vectorIiNS_9allocatorIiEEEC1B7v160006Ev, symObjAddr: 0x58, symBinAddr: 0x100003678, symSize: 0x2C }
  - { offsetInCU: 0xCC63, offset: 0xCC63, size: 0x8, addend: 0x0, symName: __ZNSt3__16vectorIiNS_9allocatorIiEEED1B7v160006Ev, symObjAddr: 0x84, symBinAddr: 0x1000036A4, symSize: 0x2C }
  - { offsetInCU: 0xCC8D, offset: 0xCC8D, size: 0x8, addend: 0x0, symName: __ZNSt3__114basic_ifstreamIcNS_11char_traitsIcEEEC1EPKcj, symObjAddr: 0xB0, symBinAddr: 0x1000036D0, symSize: 0x17C }
  - { offsetInCU: 0xCCDC, offset: 0xCCDC, size: 0x8, addend: 0x0, symName: __ZNSt3__114basic_ifstreamIcNS_11char_traitsIcEEED1Ev, symObjAddr: 0x22C, symBinAddr: 0x10000384C, symSize: 0x70 }
  - { offsetInCU: 0xCD09, offset: 0xCD09, size: 0x8, addend: 0x0, symName: _main, symObjAddr: 0x29C, symBinAddr: 0x1000038BC, symSize: 0x284 }
  - { offsetInCU: 0xCDCC, offset: 0xCDCC, size: 0x8, addend: 0x0, symName: __ZNKSt3__19basic_iosIcNS_11char_traitsIcEEEcvPvB7v160006Ev, symObjAddr: 0x520, symBinAddr: 0x100003B40, symSize: 0x4C }
  - { offsetInCU: 0xCDF2, offset: 0xCDF2, size: 0x8, addend: 0x0, symName: __ZNSt3__16vectorIiNS_9allocatorIiEEE9push_backB7v160006ERKi, symObjAddr: 0x56C, symBinAddr: 0x100003B8C, symSize: 0x6C }
  - { offsetInCU: 0xCE29, offset: 0xCE29, size: 0x8, addend: 0x0, symName: __ZNKSt3__16vectorIiNS_9allocatorIiEEE4sizeB7v160006Ev, symObjAddr: 0x5D8, symBinAddr: 0x100003BF8, symSize: 0x28 }
  - { offsetInCU: 0xCE4F, offset: 0xCE4F, size: 0x8, addend: 0x0, symName: __ZNSt3__13mapIibNS_4lessIiEENS_9allocatorINS_4pairIKibEEEEEixERS5_, symObjAddr: 0x600, symBinAddr: 0x100003C20, symSize: 0xC8 }
  - { offsetInCU: 0xCEC8, offset: 0xCEC8, size: 0x8, addend: 0x0, symName: __ZNSt3__16vectorIiNS_9allocatorIiEEEixB7v160006Em, symObjAddr: 0x6C8, symBinAddr: 0x100003CE8, symSize: 0x24 }
  - { offsetInCU: 0xCEFF, offset: 0xCEFF, size: 0x8, addend: 0x0, symName: __ZNKSt3__13mapIibNS_4lessIiEENS_9allocatorINS_4pairIKibEEEEE5countB7v160006ERS5_, symObjAddr: 0x6EC, symBinAddr: 0x100003D0C, symSize: 0x2C }
  - { offsetInCU: 0xCF34, offset: 0xCF34, size: 0x8, addend: 0x0, symName: __ZNSt3__114basic_ifstreamIcNS_11char_traitsIcEEED2Ev, symObjAddr: 0x718, symBinAddr: 0x100003D38, symSize: 0x9C }
  - { offsetInCU: 0xCF6E, offset: 0xCF6E, size: 0x8, addend: 0x0, symName: __ZTv0_n24_NSt3__114basic_ifstreamIcNS_11char_traitsIcEEED1Ev, symObjAddr: 0x7C0, symBinAddr: 0x100003DE0, symSize: 0x28 }
  - { offsetInCU: 0xCF85, offset: 0xCF85, size: 0x8, addend: 0x0, symName: __ZNSt3__13mapIibNS_4lessIiEENS_9allocatorINS_4pairIKibEEEEEC2B7v160006Ev, symObjAddr: 0x7E8, symBinAddr: 0x100003E08, symSize: 0x40 }
  - { offsetInCU: 0xCFAF, offset: 0xCFAF, size: 0x8, addend: 0x0, symName: __ZNSt3__119__map_value_compareIiNS_12__value_typeIibEENS_4lessIiEELb1EEC1B7v160006ES4_, symObjAddr: 0x828, symBinAddr: 0x100003E48, symSize: 0x2C }
  - { offsetInCU: 0xCFE8, offset: 0xCFE8, size: 0x8, addend: 0x0, symName: __ZNSt3__16__treeINS_12__value_typeIibEENS_19__map_value_compareIiS2_NS_4lessIiEELb1EEENS_9allocatorIS2_EEEC1ERKS6_, symObjAddr: 0x854, symBinAddr: 0x100003E74, symSize: 0x34 }
  - { offsetInCU: 0xD023, offset: 0xD023, size: 0x8, addend: 0x0, symName: __ZNSt3__119__map_value_compareIiNS_12__value_typeIibEENS_4lessIiEELb1EEC2B7v160006ES4_, symObjAddr: 0x888, symBinAddr: 0x100003EA8, symSize: 0x14 }
  - { offsetInCU: 0xD05C, offset: 0xD05C, size: 0x8, addend: 0x0, symName: __ZNSt3__16__treeINS_12__value_typeIibEENS_19__map_value_compareIiS2_NS_4lessIiEELb1EEENS_9allocatorIS2_EEEC2ERKS6_, symObjAddr: 0x89C, symBinAddr: 0x100003EBC, symSize: 0x70 }
  - { offsetInCU: 0xD097, offset: 0xD097, size: 0x8, addend: 0x0, symName: __ZNSt3__117__compressed_pairINS_15__tree_end_nodeIPNS_16__tree_node_baseIPvEEEENS_9allocatorINS_11__tree_nodeINS_12__value_typeIibEES3_EEEEEC1B7v160006ILb1EvEEv, symObjAddr: 0x90C, symBinAddr: 0x100003F2C, symSize: 0x2C }
  - { offsetInCU: 0xD0D1, offset: 0xD0D1, size: 0x8, addend: 0x0, symName: __ZNSt3__117__compressed_pairImNS_19__map_value_compareIiNS_12__value_typeIibEENS_4lessIiEELb1EEEEC1B7v160006IiRKS6_EEOT_OT0_, symObjAddr: 0x938, symBinAddr: 0x100003F58, symSize: 0x3C }
  - { offsetInCU: 0xD129, offset: 0xD129, size: 0x8, addend: 0x0, symName: __ZNSt3__16__treeINS_12__value_typeIibEENS_19__map_value_compareIiS2_NS_4lessIiEELb1EEENS_9allocatorIS2_EEE10__end_nodeB7v160006Ev, symObjAddr: 0x974, symBinAddr: 0x100003F94, symSize: 0x2C }
  - { offsetInCU: 0xD14F, offset: 0xD14F, size: 0x8, addend: 0x0, symName: __ZNSt3__16__treeINS_12__value_typeIibEENS_19__map_value_compareIiS2_NS_4lessIiEELb1EEENS_9allocatorIS2_EEE12__begin_nodeB7v160006Ev, symObjAddr: 0x9A0, symBinAddr: 0x100003FC0, symSize: 0x14 }
  - { offsetInCU: 0xD175, offset: 0xD175, size: 0x8, addend: 0x0, symName: __ZNSt3__117__compressed_pairINS_15__tree_end_nodeIPNS_16__tree_node_baseIPvEEEENS_9allocatorINS_11__tree_nodeINS_12__value_typeIibEES3_EEEEEC2B7v160006ILb1EvEEv, symObjAddr: 0x9B4, symBinAddr: 0x100003FD4, symSize: 0x34 }
  - { offsetInCU: 0xD1AA, offset: 0xD1AA, size: 0x8, addend: 0x0, symName: __ZNSt3__122__compressed_pair_elemINS_15__tree_end_nodeIPNS_16__tree_node_baseIPvEEEELi0ELb0EEC2B7v160006ENS_16__value_init_tagE, symObjAddr: 0x9E8, symBinAddr: 0x100004008, symSize: 0x2C }
  - { offsetInCU: 0xD1DF, offset: 0xD1DF, size: 0x8, addend: 0x0, symName: __ZNSt3__122__compressed_pair_elemINS_9allocatorINS_11__tree_nodeINS_12__value_typeIibEEPvEEEELi1ELb1EEC2B7v160006ENS_16__value_init_tagE, symObjAddr: 0xA14, symBinAddr: 0x100004034, symSize: 0x2C }
  - { offsetInCU: 0xD214, offset: 0xD214, size: 0x8, addend: 0x0, symName: __ZNSt3__115__tree_end_nodeIPNS_16__tree_node_baseIPvEEEC1B7v160006Ev, symObjAddr: 0xA40, symBinAddr: 0x100004060, symSize: 0x2C }
  - { offsetInCU: 0xD23E, offset: 0xD23E, size: 0x8, addend: 0x0, symName: __ZNSt3__115__tree_end_nodeIPNS_16__tree_node_baseIPvEEEC2B7v160006Ev, symObjAddr: 0xA6C, symBinAddr: 0x10000408C, symSize: 0x18 }
  - { offsetInCU: 0xD268, offset: 0xD268, size: 0x8, addend: 0x0, symName: __ZNSt3__19allocatorINS_11__tree_nodeINS_12__value_typeIibEEPvEEEC2B7v160006Ev, symObjAddr: 0xA84, symBinAddr: 0x1000040A4, symSize: 0x2C }
  - { offsetInCU: 0xD292, offset: 0xD292, size: 0x8, addend: 0x0, symName: __ZNSt3__116__non_trivial_ifILb1ENS_9allocatorINS_11__tree_nodeINS_12__value_typeIibEEPvEEEEEC2B7v160006Ev, symObjAddr: 0xAB0, symBinAddr: 0x1000040D0, symSize: 0x14 }
  - { offsetInCU: 0xD2BC, offset: 0xD2BC, size: 0x8, addend: 0x0, symName: __ZNSt3__117__compressed_pairImNS_19__map_value_compareIiNS_12__value_typeIibEENS_4lessIiEELb1EEEEC2B7v160006IiRKS6_EEOT_OT0_, symObjAddr: 0xAC4, symBinAddr: 0x1000040E4, symSize: 0x44 }
  - { offsetInCU: 0xD314, offset: 0xD314, size: 0x8, addend: 0x0, symName: __ZNSt3__122__compressed_pair_elemImLi0ELb0EEC2B7v160006IivEEOT_, symObjAddr: 0xB08, symBinAddr: 0x100004128, symSize: 0x24 }
  - { offsetInCU: 0xD356, offset: 0xD356, size: 0x8, addend: 0x0, symName: __ZNSt3__122__compressed_pair_elemINS_19__map_value_compareIiNS_12__value_typeIibEENS_4lessIiEELb1EEELi1ELb1EEC2B7v160006IRKS6_vEEOT_, symObjAddr: 0xB2C, symBinAddr: 0x10000414C, symSize: 0x18 }
  - { offsetInCU: 0xD398, offset: 0xD398, size: 0x8, addend: 0x0, symName: __ZNSt3__114pointer_traitsIPNS_15__tree_end_nodeIPNS_16__tree_node_baseIPvEEEEE10pointer_toB7v160006ERS6_, symObjAddr: 0xB44, symBinAddr: 0x100004164, symSize: 0x14 }
  - { offsetInCU: 0xD3BB, offset: 0xD3BB, size: 0x8, addend: 0x0, symName: __ZNSt3__117__compressed_pairINS_15__tree_end_nodeIPNS_16__tree_node_baseIPvEEEENS_9allocatorINS_11__tree_nodeINS_12__value_typeIibEES3_EEEEE5firstB7v160006Ev, symObjAddr: 0xB58, symBinAddr: 0x100004178, symSize: 0x24 }
  - { offsetInCU: 0xD3E1, offset: 0xD3E1, size: 0x8, addend: 0x0, symName: __ZNSt3__122__compressed_pair_elemINS_15__tree_end_nodeIPNS_16__tree_node_baseIPvEEEELi0ELb0EE5__getB7v160006Ev, symObjAddr: 0xB7C, symBinAddr: 0x10000419C, symSize: 0x14 }
  - { offsetInCU: 0xD407, offset: 0xD407, size: 0x8, addend: 0x0, symName: __ZNSt3__13mapIibNS_4lessIiEENS_9allocatorINS_4pairIKibEEEEED2B7v160006Ev, symObjAddr: 0xB90, symBinAddr: 0x1000041B0, symSize: 0x2C }
  - { offsetInCU: 0xD431, offset: 0xD431, size: 0x8, addend: 0x0, symName: __ZNSt3__16__treeINS_12__value_typeIibEENS_19__map_value_compareIiS2_NS_4lessIiEELb1EEENS_9allocatorIS2_EEED1Ev, symObjAddr: 0xBBC, symBinAddr: 0x1000041DC, symSize: 0x2C }
  - { offsetInCU: 0xD45D, offset: 0xD45D, size: 0x8, addend: 0x0, symName: __ZNSt3__16__treeINS_12__value_typeIibEENS_19__map_value_compareIiS2_NS_4lessIiEELb1EEENS_9allocatorIS2_EEED2Ev, symObjAddr: 0xBE8, symBinAddr: 0x100004208, symSize: 0x38 }
  - { offsetInCU: 0xD489, offset: 0xD489, size: 0x8, addend: 0x0, symName: __ZNSt3__16__treeINS_12__value_typeIibEENS_19__map_value_compareIiS2_NS_4lessIiEELb1EEENS_9allocatorIS2_EEE7destroyEPNS_11__tree_nodeIS2_PvEE, symObjAddr: 0xC20, symBinAddr: 0x100004240, symSize: 0xC0 }
  - { offsetInCU: 0xD4DD, offset: 0xD4DD, size: 0x8, addend: 0x0, symName: __ZNKSt3__16__treeINS_12__value_typeIibEENS_19__map_value_compareIiS2_NS_4lessIiEELb1EEENS_9allocatorIS2_EEE6__rootB7v160006Ev, symObjAddr: 0xCE0, symBinAddr: 0x100004300, symSize: 0x28 }
  - { offsetInCU: 0xD503, offset: 0xD503, size: 0x8, addend: 0x0, symName: __ZNSt3__16__treeINS_12__value_typeIibEENS_19__map_value_compareIiS2_NS_4lessIiEELb1EEENS_9allocatorIS2_EEE12__node_allocB7v160006Ev, symObjAddr: 0xD08, symBinAddr: 0x100004328, symSize: 0x28 }
  - { offsetInCU: 0xD529, offset: 0xD529, size: 0x8, addend: 0x0, symName: __ZNSt3__116allocator_traitsINS_9allocatorINS_11__tree_nodeINS_12__value_typeIibEEPvEEEEE7destroyB7v160006INS_4pairIKibEEvvEEvRS7_PT_, symObjAddr: 0xD30, symBinAddr: 0x100004350, symSize: 0x14 }
  - { offsetInCU: 0xD563, offset: 0xD563, size: 0x8, addend: 0x0, symName: __ZNSt3__122__tree_key_value_typesINS_12__value_typeIibEEE9__get_ptrB7v160006ERS2_, symObjAddr: 0xD44, symBinAddr: 0x100004364, symSize: 0x24 }
  - { offsetInCU: 0xD587, offset: 0xD587, size: 0x8, addend: 0x0, symName: __ZNSt3__116allocator_traitsINS_9allocatorINS_11__tree_nodeINS_12__value_typeIibEEPvEEEEE10deallocateB7v160006ERS7_PS6_m, symObjAddr: 0xD68, symBinAddr: 0x100004388, symSize: 0x34 }
  - { offsetInCU: 0xD5C9, offset: 0xD5C9, size: 0x8, addend: 0x0, symName: __ZNSt3__117__compressed_pairINS_15__tree_end_nodeIPNS_16__tree_node_baseIPvEEEENS_9allocatorINS_11__tree_nodeINS_12__value_typeIibEES3_EEEEE6secondB7v160006Ev, symObjAddr: 0xD9C, symBinAddr: 0x1000043BC, symSize: 0x24 }
  - { offsetInCU: 0xD5EF, offset: 0xD5EF, size: 0x8, addend: 0x0, symName: __ZNSt3__122__compressed_pair_elemINS_9allocatorINS_11__tree_nodeINS_12__value_typeIibEEPvEEEELi1ELb1EE5__getB7v160006Ev, symObjAddr: 0xDC0, symBinAddr: 0x1000043E0, symSize: 0x14 }
  - { offsetInCU: 0xD615, offset: 0xD615, size: 0x8, addend: 0x0, symName: __ZNSt3__112__value_typeIibE11__get_valueB7v160006Ev, symObjAddr: 0xDD4, symBinAddr: 0x1000043F4, symSize: 0x14 }
  - { offsetInCU: 0xD63B, offset: 0xD63B, size: 0x8, addend: 0x0, symName: __ZNSt3__19allocatorINS_11__tree_nodeINS_12__value_typeIibEEPvEEE10deallocateB7v160006EPS5_m, symObjAddr: 0xDE8, symBinAddr: 0x100004408, symSize: 0x74 }
  - { offsetInCU: 0xD67D, offset: 0xD67D, size: 0x8, addend: 0x0, symName: __ZNKSt3__16__treeINS_12__value_typeIibEENS_19__map_value_compareIiS2_NS_4lessIiEELb1EEENS_9allocatorIS2_EEE10__end_nodeB7v160006Ev, symObjAddr: 0xEE4, symBinAddr: 0x100004504, symSize: 0x2C }
  - { offsetInCU: 0xD6A3, offset: 0xD6A3, size: 0x8, addend: 0x0, symName: __ZNKSt3__117__compressed_pairINS_15__tree_end_nodeIPNS_16__tree_node_baseIPvEEEENS_9allocatorINS_11__tree_nodeINS_12__value_typeIibEES3_EEEEE5firstB7v160006Ev, symObjAddr: 0xF10, symBinAddr: 0x100004530, symSize: 0x24 }
  - { offsetInCU: 0xD6C9, offset: 0xD6C9, size: 0x8, addend: 0x0, symName: __ZNKSt3__122__compressed_pair_elemINS_15__tree_end_nodeIPNS_16__tree_node_baseIPvEEEELi0ELb0EE5__getB7v160006Ev, symObjAddr: 0xF34, symBinAddr: 0x100004554, symSize: 0x14 }
  - { offsetInCU: 0xD6EF, offset: 0xD6EF, size: 0x8, addend: 0x0, symName: __ZNSt3__16vectorIiNS_9allocatorIiEEEC2B7v160006Ev, symObjAddr: 0xF48, symBinAddr: 0x100004568, symSize: 0x4C }
  - { offsetInCU: 0xD723, offset: 0xD723, size: 0x8, addend: 0x0, symName: __ZNSt3__117__compressed_pairIPiNS_9allocatorIiEEEC1B7v160006IDnNS_18__default_init_tagEEEOT_OT0_, symObjAddr: 0xF94, symBinAddr: 0x1000045B4, symSize: 0x3C }
  - { offsetInCU: 0xD77B, offset: 0xD77B, size: 0x8, addend: 0x0, symName: __ZNSt3__117__compressed_pairIPiNS_9allocatorIiEEEC2B7v160006IDnNS_18__default_init_tagEEEOT_OT0_, symObjAddr: 0xFE0, symBinAddr: 0x100004600, symSize: 0x40 }
  - { offsetInCU: 0xD7D3, offset: 0xD7D3, size: 0x8, addend: 0x0, symName: __ZNSt3__122__compressed_pair_elemIPiLi0ELb0EEC2B7v160006IDnvEEOT_, symObjAddr: 0x1020, symBinAddr: 0x100004640, symSize: 0x1C }
  - { offsetInCU: 0xD815, offset: 0xD815, size: 0x8, addend: 0x0, symName: __ZNSt3__122__compressed_pair_elemINS_9allocatorIiEELi1ELb1EEC2B7v160006ENS_18__default_init_tagE, symObjAddr: 0x103C, symBinAddr: 0x10000465C, symSize: 0x2C }
  - { offsetInCU: 0xD84A, offset: 0xD84A, size: 0x8, addend: 0x0, symName: __ZNSt3__19allocatorIiEC2B7v160006Ev, symObjAddr: 0x1068, symBinAddr: 0x100004688, symSize: 0x2C }
  - { offsetInCU: 0xD874, offset: 0xD874, size: 0x8, addend: 0x0, symName: __ZNSt3__116__non_trivial_ifILb1ENS_9allocatorIiEEEC2B7v160006Ev, symObjAddr: 0x1094, symBinAddr: 0x1000046B4, symSize: 0x14 }
  - { offsetInCU: 0xD89E, offset: 0xD89E, size: 0x8, addend: 0x0, symName: __ZNSt3__16vectorIiNS_9allocatorIiEEED2B7v160006Ev, symObjAddr: 0x10A8, symBinAddr: 0x1000046C8, symSize: 0x3C }
  - { offsetInCU: 0xD8C8, offset: 0xD8C8, size: 0x8, addend: 0x0, symName: __ZNSt3__16vectorIiNS_9allocatorIiEEE16__destroy_vectorC1ERS3_, symObjAddr: 0x10E4, symBinAddr: 0x100004704, symSize: 0x34 }
  - { offsetInCU: 0xD901, offset: 0xD901, size: 0x8, addend: 0x0, symName: __ZNSt3__16vectorIiNS_9allocatorIiEEE16__destroy_vectorclB7v160006Ev, symObjAddr: 0x1118, symBinAddr: 0x100004738, symSize: 0x9C }
  - { offsetInCU: 0xD927, offset: 0xD927, size: 0x8, addend: 0x0, symName: __ZNSt3__16vectorIiNS_9allocatorIiEEE16__destroy_vectorC2ERS3_, symObjAddr: 0x11B4, symBinAddr: 0x1000047D4, symSize: 0x20 }
  - { offsetInCU: 0xD960, offset: 0xD960, size: 0x8, addend: 0x0, symName: __ZNKSt3__16vectorIiNS_9allocatorIiEEE17__annotate_deleteB7v160006Ev, symObjAddr: 0x11D4, symBinAddr: 0x1000047F4, symSize: 0xB8 }
  - { offsetInCU: 0xD986, offset: 0xD986, size: 0x8, addend: 0x0, symName: __ZNSt3__16vectorIiNS_9allocatorIiEEE7__clearB7v160006Ev, symObjAddr: 0x129C, symBinAddr: 0x1000048BC, symSize: 0x28 }
  - { offsetInCU: 0xD9AC, offset: 0xD9AC, size: 0x8, addend: 0x0, symName: __ZNSt3__116allocator_traitsINS_9allocatorIiEEE10deallocateB7v160006ERS2_Pim, symObjAddr: 0x12C4, symBinAddr: 0x1000048E4, symSize: 0x34 }
  - { offsetInCU: 0xD9EE, offset: 0xD9EE, size: 0x8, addend: 0x0, symName: __ZNSt3__16vectorIiNS_9allocatorIiEEE7__allocB7v160006Ev, symObjAddr: 0x12F8, symBinAddr: 0x100004918, symSize: 0x28 }
  - { offsetInCU: 0xDA14, offset: 0xDA14, size: 0x8, addend: 0x0, symName: __ZNKSt3__16vectorIiNS_9allocatorIiEEE8capacityB7v160006Ev, symObjAddr: 0x1320, symBinAddr: 0x100004940, symSize: 0x40 }
  - { offsetInCU: 0xDA3A, offset: 0xDA3A, size: 0x8, addend: 0x0, symName: __ZNKSt3__16vectorIiNS_9allocatorIiEEE31__annotate_contiguous_containerB7v160006EPKvS5_S5_S5_, symObjAddr: 0x1360, symBinAddr: 0x100004980, symSize: 0x20 }
  - { offsetInCU: 0xDA8C, offset: 0xDA8C, size: 0x8, addend: 0x0, symName: __ZNKSt3__16vectorIiNS_9allocatorIiEEE4dataB7v160006Ev, symObjAddr: 0x1380, symBinAddr: 0x1000049A0, symSize: 0x28 }
  - { offsetInCU: 0xDAB2, offset: 0xDAB2, size: 0x8, addend: 0x0, symName: __ZNSt3__16vectorIiNS_9allocatorIiEEE22__base_destruct_at_endB7v160006EPi, symObjAddr: 0x13BC, symBinAddr: 0x1000049DC, symSize: 0xA0 }
  - { offsetInCU: 0xDAF6, offset: 0xDAF6, size: 0x8, addend: 0x0, symName: __ZNSt3__116allocator_traitsINS_9allocatorIiEEE7destroyB7v160006IivEEvRS2_PT_, symObjAddr: 0x145C, symBinAddr: 0x100004A7C, symSize: 0x2C }
  - { offsetInCU: 0xDB33, offset: 0xDB33, size: 0x8, addend: 0x0, symName: __ZNSt3__19allocatorIiE7destroyB7v160006EPi, symObjAddr: 0x1488, symBinAddr: 0x100004AA8, symSize: 0x14 }
  - { offsetInCU: 0xDB67, offset: 0xDB67, size: 0x8, addend: 0x0, symName: __ZNSt3__19allocatorIiE10deallocateB7v160006EPim, symObjAddr: 0x149C, symBinAddr: 0x100004ABC, symSize: 0x70 }
  - { offsetInCU: 0xDBA9, offset: 0xDBA9, size: 0x8, addend: 0x0, symName: __ZNSt3__117__compressed_pairIPiNS_9allocatorIiEEE6secondB7v160006Ev, symObjAddr: 0x150C, symBinAddr: 0x100004B2C, symSize: 0x24 }
  - { offsetInCU: 0xDBCF, offset: 0xDBCF, size: 0x8, addend: 0x0, symName: __ZNSt3__122__compressed_pair_elemINS_9allocatorIiEELi1ELb1EE5__getB7v160006Ev, symObjAddr: 0x1530, symBinAddr: 0x100004B50, symSize: 0x14 }
  - { offsetInCU: 0xDBF5, offset: 0xDBF5, size: 0x8, addend: 0x0, symName: __ZNKSt3__16vectorIiNS_9allocatorIiEEE9__end_capB7v160006Ev, symObjAddr: 0x1544, symBinAddr: 0x100004B64, symSize: 0x28 }
  - { offsetInCU: 0xDC1B, offset: 0xDC1B, size: 0x8, addend: 0x0, symName: __ZNKSt3__117__compressed_pairIPiNS_9allocatorIiEEE5firstB7v160006Ev, symObjAddr: 0x156C, symBinAddr: 0x100004B8C, symSize: 0x24 }
  - { offsetInCU: 0xDC41, offset: 0xDC41, size: 0x8, addend: 0x0, symName: __ZNKSt3__122__compressed_pair_elemIPiLi0ELb0EE5__getB7v160006Ev, symObjAddr: 0x1590, symBinAddr: 0x100004BB0, symSize: 0x14 }
  - { offsetInCU: 0xDC67, offset: 0xDC67, size: 0x8, addend: 0x0, symName: __ZNSt3__19basic_iosIcNS_11char_traitsIcEEEC2B7v160006Ev, symObjAddr: 0x15A4, symBinAddr: 0x100004BC4, symSize: 0x44 }
  - { offsetInCU: 0xDC91, offset: 0xDC91, size: 0x8, addend: 0x0, symName: __ZNSt3__113basic_istreamIcNS_11char_traitsIcEEEC2B7v160006EPNS_15basic_streambufIcS2_EE, symObjAddr: 0x15E8, symBinAddr: 0x100004C08, symSize: 0x64 }
  - { offsetInCU: 0xDCD6, offset: 0xDCD6, size: 0x8, addend: 0x0, symName: __ZNSt3__19basic_iosIcNS_11char_traitsIcEEE8setstateB7v160006Ej, symObjAddr: 0x164C, symBinAddr: 0x100004C6C, symSize: 0x2C }
  - { offsetInCU: 0xDD0B, offset: 0xDD0B, size: 0x8, addend: 0x0, symName: __ZNSt3__18ios_baseC2B7v160006Ev, symObjAddr: 0x1678, symBinAddr: 0x100004C98, symSize: 0x24 }
  - { offsetInCU: 0xDD35, offset: 0xDD35, size: 0x8, addend: 0x0, symName: __ZNSt3__19basic_iosIcNS_11char_traitsIcEEE4initB7v160006EPNS_15basic_streambufIcS2_EE, symObjAddr: 0x169C, symBinAddr: 0x100004CBC, symSize: 0x44 }
  - { offsetInCU: 0xDD6C, offset: 0xDD6C, size: 0x8, addend: 0x0, symName: __ZNSt3__111char_traitsIcE3eofEv, symObjAddr: 0x16E0, symBinAddr: 0x100004D00, symSize: 0x8 }
  - { offsetInCU: 0xDD80, offset: 0xDD80, size: 0x8, addend: 0x0, symName: __ZNSt3__18ios_base8setstateB7v160006Ej, symObjAddr: 0x16E8, symBinAddr: 0x100004D08, symSize: 0x34 }
  - { offsetInCU: 0xDDB7, offset: 0xDDB7, size: 0x8, addend: 0x0, symName: __ZNKSt3__19basic_iosIcNS_11char_traitsIcEEE4failB7v160006Ev, symObjAddr: 0x171C, symBinAddr: 0x100004D3C, symSize: 0x28 }
  - { offsetInCU: 0xDDDD, offset: 0xDDDD, size: 0x8, addend: 0x0, symName: __ZNKSt3__18ios_base4failB7v160006Ev, symObjAddr: 0x1744, symBinAddr: 0x100004D64, symSize: 0x28 }
  - { offsetInCU: 0xDE05, offset: 0xDE05, size: 0x8, addend: 0x0, symName: __ZNSt3__16vectorIiNS_9allocatorIiEEE9__end_capB7v160006Ev, symObjAddr: 0x176C, symBinAddr: 0x100004D8C, symSize: 0x28 }
  - { offsetInCU: 0xDE2B, offset: 0xDE2B, size: 0x8, addend: 0x0, symName: __ZNSt3__16vectorIiNS_9allocatorIiEEE22__construct_one_at_endB7v160006IJRKiEEEvDpOT_, symObjAddr: 0x1794, symBinAddr: 0x100004DB4, symSize: 0x98 }
  - { offsetInCU: 0xDE7A, offset: 0xDE7A, size: 0x8, addend: 0x0, symName: __ZNSt3__16vectorIiNS_9allocatorIiEEE21__push_back_slow_pathIRKiEEvOT_, symObjAddr: 0x182C, symBinAddr: 0x100004E4C, symSize: 0xE0 }
  - { offsetInCU: 0xDED8, offset: 0xDED8, size: 0x8, addend: 0x0, symName: __ZNSt3__117__compressed_pairIPiNS_9allocatorIiEEE5firstB7v160006Ev, symObjAddr: 0x190C, symBinAddr: 0x100004F2C, symSize: 0x24 }
  - { offsetInCU: 0xDEFE, offset: 0xDEFE, size: 0x8, addend: 0x0, symName: __ZNSt3__122__compressed_pair_elemIPiLi0ELb0EE5__getB7v160006Ev, symObjAddr: 0x1930, symBinAddr: 0x100004F50, symSize: 0x14 }
  - { offsetInCU: 0xDF3D, offset: 0xDF3D, size: 0x8, addend: 0x0, symName: __ZNSt3__16vectorIiNS_9allocatorIiEEE21_ConstructTransactionC1B7v160006ERS3_m, symObjAddr: 0x1944, symBinAddr: 0x100004F64, symSize: 0x3C }
  - { offsetInCU: 0xDF85, offset: 0xDF85, size: 0x8, addend: 0x0, symName: __ZNSt3__116allocator_traitsINS_9allocatorIiEEE9constructB7v160006IiJRKiEvEEvRS2_PT_DpOT0_, symObjAddr: 0x1980, symBinAddr: 0x100004FA0, symSize: 0x34 }
  - { offsetInCU: 0xDFDC, offset: 0xDFDC, size: 0x8, addend: 0x0, symName: __ZNSt3__16vectorIiNS_9allocatorIiEEE21_ConstructTransactionD1B7v160006Ev, symObjAddr: 0x19B4, symBinAddr: 0x100004FD4, symSize: 0x2C }
  - { offsetInCU: 0xE006, offset: 0xE006, size: 0x8, addend: 0x0, symName: __ZNSt3__16vectorIiNS_9allocatorIiEEE21_ConstructTransactionC2B7v160006ERS3_m, symObjAddr: 0x19E0, symBinAddr: 0x100005000, symSize: 0x44 }
  - { offsetInCU: 0xE04E, offset: 0xE04E, size: 0x8, addend: 0x0, symName: __ZNSt3__19allocatorIiE9constructB7v160006IiJRKiEEEvPT_DpOT0_, symObjAddr: 0x1A24, symBinAddr: 0x100005044, symSize: 0x28 }
  - { offsetInCU: 0xE0A4, offset: 0xE0A4, size: 0x8, addend: 0x0, symName: __ZNSt3__16vectorIiNS_9allocatorIiEEE21_ConstructTransactionD2B7v160006Ev, symObjAddr: 0x1A4C, symBinAddr: 0x10000506C, symSize: 0x20 }
  - { offsetInCU: 0xE0CE, offset: 0xE0CE, size: 0x8, addend: 0x0, symName: __ZNKSt3__16vectorIiNS_9allocatorIiEEE11__recommendB7v160006Em, symObjAddr: 0x1A6C, symBinAddr: 0x10000508C, symSize: 0xB4 }
  - { offsetInCU: 0xE123, offset: 0xE123, size: 0x8, addend: 0x0, symName: __ZNSt3__114__split_bufferIiRNS_9allocatorIiEEEC1EmmS3_, symObjAddr: 0x1B20, symBinAddr: 0x100005140, symSize: 0x44 }
  - { offsetInCU: 0xE179, offset: 0xE179, size: 0x8, addend: 0x0, symName: __ZNSt3__114__split_bufferIiRNS_9allocatorIiEEED1Ev, symObjAddr: 0x1C7C, symBinAddr: 0x10000529C, symSize: 0x2C }
  - { offsetInCU: 0xE1A5, offset: 0xE1A5, size: 0x8, addend: 0x0, symName: __ZNKSt3__16vectorIiNS_9allocatorIiEEE8max_sizeEv, symObjAddr: 0x1CA8, symBinAddr: 0x1000052C8, symSize: 0x74 }
  - { offsetInCU: 0xE1CD, offset: 0xE1CD, size: 0x8, addend: 0x0, symName: __ZNKSt3__16vectorIiNS_9allocatorIiEEE20__throw_length_errorB7v160006Ev, symObjAddr: 0x1D1C, symBinAddr: 0x10000533C, symSize: 0x1C }
  - { offsetInCU: 0xE1FD, offset: 0xE1FD, size: 0x8, addend: 0x0, symName: __ZNSt3__116allocator_traitsINS_9allocatorIiEEE8max_sizeB7v160006IS2_vEEmRKS2_, symObjAddr: 0x1D90, symBinAddr: 0x1000053B0, symSize: 0x24 }
  - { offsetInCU: 0xE22B, offset: 0xE22B, size: 0x8, addend: 0x0, symName: __ZNKSt3__16vectorIiNS_9allocatorIiEEE7__allocB7v160006Ev, symObjAddr: 0x1DB4, symBinAddr: 0x1000053D4, symSize: 0x28 }
  - { offsetInCU: 0xE251, offset: 0xE251, size: 0x8, addend: 0x0, symName: __ZNSt3__114numeric_limitsIlE3maxB7v160006Ev, symObjAddr: 0x1DDC, symBinAddr: 0x1000053FC, symSize: 0x14 }
  - { offsetInCU: 0xE26F, offset: 0xE26F, size: 0x8, addend: 0x0, symName: __ZNKSt3__16__lessImmEclB7v160006ERKmS3_, symObjAddr: 0x1E44, symBinAddr: 0x100005464, symSize: 0x34 }
  - { offsetInCU: 0xE2B1, offset: 0xE2B1, size: 0x8, addend: 0x0, symName: __ZNKSt3__19allocatorIiE8max_sizeB7v160006Ev, symObjAddr: 0x1E78, symBinAddr: 0x100005498, symSize: 0x14 }
  - { offsetInCU: 0xE2D7, offset: 0xE2D7, size: 0x8, addend: 0x0, symName: __ZNKSt3__117__compressed_pairIPiNS_9allocatorIiEEE6secondB7v160006Ev, symObjAddr: 0x1E8C, symBinAddr: 0x1000054AC, symSize: 0x24 }
  - { offsetInCU: 0xE2FD, offset: 0xE2FD, size: 0x8, addend: 0x0, symName: __ZNKSt3__122__compressed_pair_elemINS_9allocatorIiEELi1ELb1EE5__getB7v160006Ev, symObjAddr: 0x1EB0, symBinAddr: 0x1000054D0, symSize: 0x14 }
  - { offsetInCU: 0xE323, offset: 0xE323, size: 0x8, addend: 0x0, symName: __ZNSt3__123__libcpp_numeric_limitsIlLb1EE3maxB7v160006Ev, symObjAddr: 0x1EC4, symBinAddr: 0x1000054E4, symSize: 0x8 }
  - { offsetInCU: 0xE337, offset: 0xE337, size: 0x8, addend: 0x0, symName: __ZNSt12length_errorC1B7v160006EPKc, symObjAddr: 0x1F30, symBinAddr: 0x100005550, symSize: 0x34 }
  - { offsetInCU: 0xE36F, offset: 0xE36F, size: 0x8, addend: 0x0, symName: __ZNSt12length_errorC2B7v160006EPKc, symObjAddr: 0x1F64, symBinAddr: 0x100005584, symSize: 0x4C }
  - { offsetInCU: 0xE3A7, offset: 0xE3A7, size: 0x8, addend: 0x0, symName: __ZNSt3__114__split_bufferIiRNS_9allocatorIiEEEC2EmmS3_, symObjAddr: 0x2004, symBinAddr: 0x100005624, symSize: 0xD4 }
  - { offsetInCU: 0xE41A, offset: 0xE41A, size: 0x8, addend: 0x0, symName: __ZNSt3__117__compressed_pairIPiRNS_9allocatorIiEEEC1B7v160006IDnS4_EEOT_OT0_, symObjAddr: 0x20D8, symBinAddr: 0x1000056F8, symSize: 0x3C }
  - { offsetInCU: 0xE472, offset: 0xE472, size: 0x8, addend: 0x0, symName: __ZNSt3__114__split_bufferIiRNS_9allocatorIiEEE7__allocB7v160006Ev, symObjAddr: 0x2154, symBinAddr: 0x100005774, symSize: 0x28 }
  - { offsetInCU: 0xE498, offset: 0xE498, size: 0x8, addend: 0x0, symName: __ZNSt3__114__split_bufferIiRNS_9allocatorIiEEE9__end_capB7v160006Ev, symObjAddr: 0x217C, symBinAddr: 0x10000579C, symSize: 0x28 }
  - { offsetInCU: 0xE4BE, offset: 0xE4BE, size: 0x8, addend: 0x0, symName: __ZNSt3__117__compressed_pairIPiRNS_9allocatorIiEEEC2B7v160006IDnS4_EEOT_OT0_, symObjAddr: 0x21A4, symBinAddr: 0x1000057C4, symSize: 0x48 }
  - { offsetInCU: 0xE516, offset: 0xE516, size: 0x8, addend: 0x0, symName: __ZNSt3__122__compressed_pair_elemIRNS_9allocatorIiEELi1ELb0EEC2B7v160006IS3_vEEOT_, symObjAddr: 0x21EC, symBinAddr: 0x10000580C, symSize: 0x20 }
  - { offsetInCU: 0xE558, offset: 0xE558, size: 0x8, addend: 0x0, symName: __ZNSt3__19allocatorIiE8allocateB7v160006Em, symObjAddr: 0x220C, symBinAddr: 0x10000582C, symSize: 0x84 }
  - { offsetInCU: 0xE58C, offset: 0xE58C, size: 0x8, addend: 0x0, symName: __ZNSt3__117__compressed_pairIPiRNS_9allocatorIiEEE6secondB7v160006Ev, symObjAddr: 0x2310, symBinAddr: 0x100005930, symSize: 0x28 }
  - { offsetInCU: 0xE5B2, offset: 0xE5B2, size: 0x8, addend: 0x0, symName: __ZNSt3__122__compressed_pair_elemIRNS_9allocatorIiEELi1ELb0EE5__getB7v160006Ev, symObjAddr: 0x2338, symBinAddr: 0x100005958, symSize: 0x18 }
  - { offsetInCU: 0xE5D8, offset: 0xE5D8, size: 0x8, addend: 0x0, symName: __ZNSt3__117__compressed_pairIPiRNS_9allocatorIiEEE5firstB7v160006Ev, symObjAddr: 0x2350, symBinAddr: 0x100005970, symSize: 0x24 }
  - { offsetInCU: 0xE5FE, offset: 0xE5FE, size: 0x8, addend: 0x0, symName: __ZNSt3__116reverse_iteratorIPiEC1B7v160006ES1_, symObjAddr: 0x245C, symBinAddr: 0x100005A7C, symSize: 0x34 }
  - { offsetInCU: 0xE636, offset: 0xE636, size: 0x8, addend: 0x0, symName: __ZNKSt3__116reverse_iteratorIPiE4baseB7v160006Ev, symObjAddr: 0x2490, symBinAddr: 0x100005AB0, symSize: 0x18 }
  - { offsetInCU: 0xE65C, offset: 0xE65C, size: 0x8, addend: 0x0, symName: __ZNKSt3__16vectorIiNS_9allocatorIiEEE14__annotate_newB7v160006Em, symObjAddr: 0x24E4, symBinAddr: 0x100005B04, symSize: 0xAC }
  - { offsetInCU: 0xE691, offset: 0xE691, size: 0x8, addend: 0x0, symName: __ZNKSt3__116reverse_iteratorIPiEdeB7v160006Ev, symObjAddr: 0x2638, symBinAddr: 0x100005C58, symSize: 0x28 }
  - { offsetInCU: 0xE6C5, offset: 0xE6C5, size: 0x8, addend: 0x0, symName: __ZNSt3__116reverse_iteratorIPiEppB7v160006Ev, symObjAddr: 0x2660, symBinAddr: 0x100005C80, symSize: 0x20 }
  - { offsetInCU: 0xE6F0, offset: 0xE6F0, size: 0x8, addend: 0x0, symName: __ZNSt3__119__to_address_helperINS_16reverse_iteratorIPiEEvE6__callB7v160006ERKS3_, symObjAddr: 0x26F8, symBinAddr: 0x100005D18, symSize: 0x4C }
  - { offsetInCU: 0xE713, offset: 0xE713, size: 0x8, addend: 0x0, symName: __ZNKSt3__116reverse_iteratorIPiEptB7v160006Ev, symObjAddr: 0x2744, symBinAddr: 0x100005D64, symSize: 0x24 }
  - { offsetInCU: 0xE75C, offset: 0xE75C, size: 0x8, addend: 0x0, symName: __ZNKSt3__111__move_loopINS_17_ClassicAlgPolicyEEclB7v160006INS_16reverse_iteratorIPiEES6_S6_EENS_4pairIT_T1_EES8_T0_S9_, symObjAddr: 0x29F8, symBinAddr: 0x100006018, symSize: 0xA0 }
  - { offsetInCU: 0xE7C7, offset: 0xE7C7, size: 0x8, addend: 0x0, symName: __ZNSt3__18_IterOpsINS_17_ClassicAlgPolicyEE11__iter_moveB7v160006IRNS_16reverse_iteratorIPiEEEENS_9enable_ifIXsr12is_referenceIDTdeclsr3stdE7declvalIRT_EEEEE5valueEDTclsr3stdE4movedeclsr3stdE7declvalISA_EEEEE4typeEOS9_, symObjAddr: 0x2BF8, symBinAddr: 0x100006218, symSize: 0x28 }
  - { offsetInCU: 0xE7F3, offset: 0xE7F3, size: 0x8, addend: 0x0, symName: __ZNSt3__18_IterOpsINS_17_ClassicAlgPolicyEE25__validate_iter_referenceB7v160006IRNS_16reverse_iteratorIPiEEEEvv, symObjAddr: 0x2C20, symBinAddr: 0x100006240, symSize: 0x4 }
  - { offsetInCU: 0xE811, offset: 0xE811, size: 0x8, addend: 0x0, symName: __ZNSt3__118__unwrap_iter_implINS_16reverse_iteratorIPiEELb0EE8__unwrapB7v160006ES3_, symObjAddr: 0x2C24, symBinAddr: 0x100006244, symSize: 0x24 }
  - { offsetInCU: 0xE834, offset: 0xE834, size: 0x8, addend: 0x0, symName: __ZNSt3__14pairINS_16reverse_iteratorIPiEES3_EC1B7v160006ERKS3_S6_, symObjAddr: 0x2C48, symBinAddr: 0x100006268, symSize: 0x3C }
  - { offsetInCU: 0xE87A, offset: 0xE87A, size: 0x8, addend: 0x0, symName: __ZNSt3__14pairINS_16reverse_iteratorIPiEES3_EC2B7v160006ERKS3_S6_, symObjAddr: 0x2C84, symBinAddr: 0x1000062A4, symSize: 0x34 }
  - { offsetInCU: 0xE8C0, offset: 0xE8C0, size: 0x8, addend: 0x0, symName: __ZNSt3__118__unwrap_iter_implINS_16reverse_iteratorIPiEELb0EE8__rewrapB7v160006ES3_S3_, symObjAddr: 0x2CB8, symBinAddr: 0x1000062D8, symSize: 0x2C }
  - { offsetInCU: 0xE8EE, offset: 0xE8EE, size: 0x8, addend: 0x0, symName: __ZNSt3__116reverse_iteratorIPiEC2B7v160006ES1_, symObjAddr: 0x2CE4, symBinAddr: 0x100006304, symSize: 0x28 }
  - { offsetInCU: 0xE926, offset: 0xE926, size: 0x8, addend: 0x0, symName: __ZNSt3__114__split_bufferIiRNS_9allocatorIiEEED2Ev, symObjAddr: 0x2D0C, symBinAddr: 0x10000632C, symSize: 0x80 }
  - { offsetInCU: 0xE952, offset: 0xE952, size: 0x8, addend: 0x0, symName: __ZNSt3__114__split_bufferIiRNS_9allocatorIiEEE5clearB7v160006Ev, symObjAddr: 0x2D8C, symBinAddr: 0x1000063AC, symSize: 0x28 }
  - { offsetInCU: 0xE978, offset: 0xE978, size: 0x8, addend: 0x0, symName: __ZNKSt3__114__split_bufferIiRNS_9allocatorIiEEE8capacityB7v160006Ev, symObjAddr: 0x2DB4, symBinAddr: 0x1000063D4, symSize: 0x40 }
  - { offsetInCU: 0xE99E, offset: 0xE99E, size: 0x8, addend: 0x0, symName: __ZNSt3__114__split_bufferIiRNS_9allocatorIiEEE17__destruct_at_endB7v160006EPi, symObjAddr: 0x2DF4, symBinAddr: 0x100006414, symSize: 0x2C }
  - { offsetInCU: 0xE9D2, offset: 0xE9D2, size: 0x8, addend: 0x0, symName: __ZNSt3__114__split_bufferIiRNS_9allocatorIiEEE17__destruct_at_endB7v160006EPiNS_17integral_constantIbLb0EEE, symObjAddr: 0x2E20, symBinAddr: 0x100006440, symSize: 0x94 }
  - { offsetInCU: 0xEA13, offset: 0xEA13, size: 0x8, addend: 0x0, symName: __ZNKSt3__114__split_bufferIiRNS_9allocatorIiEEE9__end_capB7v160006Ev, symObjAddr: 0x2EB4, symBinAddr: 0x1000064D4, symSize: 0x28 }
  - { offsetInCU: 0xEA39, offset: 0xEA39, size: 0x8, addend: 0x0, symName: __ZNKSt3__117__compressed_pairIPiRNS_9allocatorIiEEE5firstB7v160006Ev, symObjAddr: 0x2EDC, symBinAddr: 0x1000064FC, symSize: 0x24 }
  - { offsetInCU: 0xEA5F, offset: 0xEA5F, size: 0x8, addend: 0x0, symName: __ZNSt3__16__treeINS_12__value_typeIibEENS_19__map_value_compareIiS2_NS_4lessIiEELb1EEENS_9allocatorIS2_EEE12__find_equalIiEERPNS_16__tree_node_baseIPvEERPNS_15__tree_end_nodeISE_EERKT_, symObjAddr: 0x2F00, symBinAddr: 0x100006520, symSize: 0x184 }
  - { offsetInCU: 0xEACC, offset: 0xEACC, size: 0x8, addend: 0x0, symName: __ZNSt3__13mapIibNS_4lessIiEENS_9allocatorINS_4pairIKibEEEEE25__construct_node_with_keyERS5_, symObjAddr: 0x3084, symBinAddr: 0x1000066A4, symSize: 0x144 }
  - { offsetInCU: 0xEB22, offset: 0xEB22, size: 0x8, addend: 0x0, symName: __ZNSt3__16__treeINS_12__value_typeIibEENS_19__map_value_compareIiS2_NS_4lessIiEELb1EEENS_9allocatorIS2_EEE16__insert_node_atEPNS_15__tree_end_nodeIPNS_16__tree_node_baseIPvEEEERSE_SE_, symObjAddr: 0x31C8, symBinAddr: 0x1000067E8, symSize: 0xCC }
  - { offsetInCU: 0xEB77, offset: 0xEB77, size: 0x8, addend: 0x0, symName: __ZNKSt3__110unique_ptrINS_11__tree_nodeINS_12__value_typeIibEEPvEENS_21__map_node_destructorINS_9allocatorIS5_EEEEE3getB7v160006Ev, symObjAddr: 0x3294, symBinAddr: 0x1000068B4, symSize: 0x28 }
  - { offsetInCU: 0xEB9D, offset: 0xEB9D, size: 0x8, addend: 0x0, symName: __ZNSt3__110unique_ptrINS_11__tree_nodeINS_12__value_typeIibEEPvEENS_21__map_node_destructorINS_9allocatorIS5_EEEEE7releaseB7v160006Ev, symObjAddr: 0x32BC, symBinAddr: 0x1000068DC, symSize: 0x44 }
  - { offsetInCU: 0xEBD2, offset: 0xEBD2, size: 0x8, addend: 0x0, symName: __ZNSt3__110unique_ptrINS_11__tree_nodeINS_12__value_typeIibEEPvEENS_21__map_node_destructorINS_9allocatorIS5_EEEEED1B7v160006Ev, symObjAddr: 0x3300, symBinAddr: 0x100006920, symSize: 0x2C }
  - { offsetInCU: 0xEBFC, offset: 0xEBFC, size: 0x8, addend: 0x0, symName: __ZNKSt3__16__treeINS_12__value_typeIibEENS_19__map_value_compareIiS2_NS_4lessIiEELb1EEENS_9allocatorIS2_EEE10__root_ptrEv, symObjAddr: 0x332C, symBinAddr: 0x10000694C, symSize: 0x24 }
  - { offsetInCU: 0xEC22, offset: 0xEC22, size: 0x8, addend: 0x0, symName: __ZNSt3__16__treeINS_12__value_typeIibEENS_19__map_value_compareIiS2_NS_4lessIiEELb1EEENS_9allocatorIS2_EEE10value_compB7v160006Ev, symObjAddr: 0x3350, symBinAddr: 0x100006970, symSize: 0x28 }
  - { offsetInCU: 0xEC48, offset: 0xEC48, size: 0x8, addend: 0x0, symName: __ZNKSt3__119__map_value_compareIiNS_12__value_typeIibEENS_4lessIiEELb1EEclB7v160006ERKiRKS2_, symObjAddr: 0x3378, symBinAddr: 0x100006998, symSize: 0x50 }
  - { offsetInCU: 0xEC8C, offset: 0xEC8C, size: 0x8, addend: 0x0, symName: __ZNKSt3__119__map_value_compareIiNS_12__value_typeIibEENS_4lessIiEELb1EEclB7v160006ERKS2_RKi, symObjAddr: 0x33C8, symBinAddr: 0x1000069E8, symSize: 0x48 }
  - { offsetInCU: 0xECD0, offset: 0xECD0, size: 0x8, addend: 0x0, symName: __ZNSt3__117__compressed_pairImNS_19__map_value_compareIiNS_12__value_typeIibEENS_4lessIiEELb1EEEE6secondB7v160006Ev, symObjAddr: 0x3410, symBinAddr: 0x100006A30, symSize: 0x24 }
  - { offsetInCU: 0xECF6, offset: 0xECF6, size: 0x8, addend: 0x0, symName: __ZNSt3__122__compressed_pair_elemINS_19__map_value_compareIiNS_12__value_typeIibEENS_4lessIiEELb1EEELi1ELb1EE5__getB7v160006Ev, symObjAddr: 0x3434, symBinAddr: 0x100006A54, symSize: 0x14 }
  - { offsetInCU: 0xED1C, offset: 0xED1C, size: 0x8, addend: 0x0, symName: __ZNKSt3__14lessIiEclB7v160006ERKiS3_, symObjAddr: 0x3448, symBinAddr: 0x100006A68, symSize: 0x34 }
  - { offsetInCU: 0xED60, offset: 0xED60, size: 0x8, addend: 0x0, symName: __ZNKSt3__112__value_typeIibE11__get_valueB7v160006Ev, symObjAddr: 0x347C, symBinAddr: 0x100006A9C, symSize: 0x14 }
  - { offsetInCU: 0xED86, offset: 0xED86, size: 0x8, addend: 0x0, symName: __ZNSt3__116allocator_traitsINS_9allocatorINS_11__tree_nodeINS_12__value_typeIibEEPvEEEEE8allocateB7v160006ERS7_m, symObjAddr: 0x3490, symBinAddr: 0x100006AB0, symSize: 0x2C }
  - { offsetInCU: 0xEDB9, offset: 0xEDB9, size: 0x8, addend: 0x0, symName: __ZNSt3__121__map_node_destructorINS_9allocatorINS_11__tree_nodeINS_12__value_typeIibEEPvEEEEEC1B7v160006ERS7_, symObjAddr: 0x34BC, symBinAddr: 0x100006ADC, symSize: 0x34 }
  - { offsetInCU: 0xEDF7, offset: 0xEDF7, size: 0x8, addend: 0x0, symName: __ZNSt3__110unique_ptrINS_11__tree_nodeINS_12__value_typeIibEEPvEENS_21__map_node_destructorINS_9allocatorIS5_EEEEEC1B7v160006ILb1EvEEPS5_NS_16__dependent_typeINS_27__unique_ptr_deleter_sfinaeIS9_EEXT_EE20__good_rval_ref_typeE, symObjAddr: 0x34F0, symBinAddr: 0x100006B10, symSize: 0x3C }
  - { offsetInCU: 0xEE48, offset: 0xEE48, size: 0x8, addend: 0x0, symName: __ZNSt3__116allocator_traitsINS_9allocatorINS_11__tree_nodeINS_12__value_typeIibEEPvEEEEE9constructB7v160006IKiJRSA_EvEEvRS7_PT_DpOT0_, symObjAddr: 0x352C, symBinAddr: 0x100006B4C, symSize: 0x34 }
  - { offsetInCU: 0xEE9F, offset: 0xEE9F, size: 0x8, addend: 0x0, symName: __ZNKSt3__110unique_ptrINS_11__tree_nodeINS_12__value_typeIibEEPvEENS_21__map_node_destructorINS_9allocatorIS5_EEEEEptB7v160006Ev, symObjAddr: 0x3560, symBinAddr: 0x100006B80, symSize: 0x28 }
  - { offsetInCU: 0xEEC5, offset: 0xEEC5, size: 0x8, addend: 0x0, symName: __ZNSt3__110unique_ptrINS_11__tree_nodeINS_12__value_typeIibEEPvEENS_21__map_node_destructorINS_9allocatorIS5_EEEEE11get_deleterB7v160006Ev, symObjAddr: 0x3588, symBinAddr: 0x100006BA8, symSize: 0x24 }
  - { offsetInCU: 0xEEF0, offset: 0xEEF0, size: 0x8, addend: 0x0, symName: __ZNSt3__116allocator_traitsINS_9allocatorINS_11__tree_nodeINS_12__value_typeIibEEPvEEEEE9constructB7v160006IbJEvEEvRS7_PT_DpOT0_, symObjAddr: 0x35AC, symBinAddr: 0x100006BCC, symSize: 0x2C }
  - { offsetInCU: 0xEF32, offset: 0xEF32, size: 0x8, addend: 0x0, symName: __ZNSt3__19allocatorINS_11__tree_nodeINS_12__value_typeIibEEPvEEE8allocateB7v160006Em, symObjAddr: 0x35D8, symBinAddr: 0x100006BF8, symSize: 0x8C }
  - { offsetInCU: 0xEF70, offset: 0xEF70, size: 0x8, addend: 0x0, symName: __ZNSt3__116allocator_traitsINS_9allocatorINS_11__tree_nodeINS_12__value_typeIibEEPvEEEEE8max_sizeB7v160006IS7_vEEmRKS7_, symObjAddr: 0x3664, symBinAddr: 0x100006C84, symSize: 0x24 }
  - { offsetInCU: 0xEF9E, offset: 0xEF9E, size: 0x8, addend: 0x0, symName: __ZNKSt3__19allocatorINS_11__tree_nodeINS_12__value_typeIibEEPvEEE8max_sizeB7v160006Ev, symObjAddr: 0x3688, symBinAddr: 0x100006CA8, symSize: 0x18 }
  - { offsetInCU: 0xEFC4, offset: 0xEFC4, size: 0x8, addend: 0x0, symName: __ZNSt3__121__map_node_destructorINS_9allocatorINS_11__tree_nodeINS_12__value_typeIibEEPvEEEEEC2B7v160006ERS7_, symObjAddr: 0x36A0, symBinAddr: 0x100006CC0, symSize: 0x28 }
  - { offsetInCU: 0xEFFD, offset: 0xEFFD, size: 0x8, addend: 0x0, symName: __ZNSt3__110unique_ptrINS_11__tree_nodeINS_12__value_typeIibEEPvEENS_21__map_node_destructorINS_9allocatorIS5_EEEEEC2B7v160006ILb1EvEEPS5_NS_16__dependent_typeINS_27__unique_ptr_deleter_sfinaeIS9_EEXT_EE20__good_rval_ref_typeE, symObjAddr: 0x36C8, symBinAddr: 0x100006CE8, symSize: 0x5C }
  - { offsetInCU: 0xF04E, offset: 0xF04E, size: 0x8, addend: 0x0, symName: __ZNSt3__117__compressed_pairIPNS_11__tree_nodeINS_12__value_typeIibEEPvEENS_21__map_node_destructorINS_9allocatorIS5_EEEEEC1B7v160006IRS6_SA_EEOT_OT0_, symObjAddr: 0x3724, symBinAddr: 0x100006D44, symSize: 0x3C }
  - { offsetInCU: 0xF0A6, offset: 0xF0A6, size: 0x8, addend: 0x0, symName: __ZNSt3__117__compressed_pairIPNS_11__tree_nodeINS_12__value_typeIibEEPvEENS_21__map_node_destructorINS_9allocatorIS5_EEEEEC2B7v160006IRS6_SA_EEOT_OT0_, symObjAddr: 0x3760, symBinAddr: 0x100006D80, symSize: 0x48 }
  - { offsetInCU: 0xF0FE, offset: 0xF0FE, size: 0x8, addend: 0x0, symName: __ZNSt3__122__compressed_pair_elemIPNS_11__tree_nodeINS_12__value_typeIibEEPvEELi0ELb0EEC2B7v160006IRS6_vEEOT_, symObjAddr: 0x37A8, symBinAddr: 0x100006DC8, symSize: 0x24 }
  - { offsetInCU: 0xF140, offset: 0xF140, size: 0x8, addend: 0x0, symName: __ZNSt3__122__compressed_pair_elemINS_21__map_node_destructorINS_9allocatorINS_11__tree_nodeINS_12__value_typeIibEEPvEEEEEELi1ELb0EEC2B7v160006IS9_vEEOT_, symObjAddr: 0x37CC, symBinAddr: 0x100006DEC, symSize: 0x24 }
  - { offsetInCU: 0xF182, offset: 0xF182, size: 0x8, addend: 0x0, symName: __ZNSt3__19allocatorINS_11__tree_nodeINS_12__value_typeIibEEPvEEE9constructB7v160006IKiJRS8_EEEvPT_DpOT0_, symObjAddr: 0x37F0, symBinAddr: 0x100006E10, symSize: 0x28 }
  - { offsetInCU: 0xF1D8, offset: 0xF1D8, size: 0x8, addend: 0x0, symName: __ZNKSt3__117__compressed_pairIPNS_11__tree_nodeINS_12__value_typeIibEEPvEENS_21__map_node_destructorINS_9allocatorIS5_EEEEE5firstB7v160006Ev, symObjAddr: 0x3818, symBinAddr: 0x100006E38, symSize: 0x24 }
  - { offsetInCU: 0xF1FE, offset: 0xF1FE, size: 0x8, addend: 0x0, symName: __ZNKSt3__122__compressed_pair_elemIPNS_11__tree_nodeINS_12__value_typeIibEEPvEELi0ELb0EE5__getB7v160006Ev, symObjAddr: 0x383C, symBinAddr: 0x100006E5C, symSize: 0x14 }
  - { offsetInCU: 0xF224, offset: 0xF224, size: 0x8, addend: 0x0, symName: __ZNSt3__117__compressed_pairIPNS_11__tree_nodeINS_12__value_typeIibEEPvEENS_21__map_node_destructorINS_9allocatorIS5_EEEEE6secondB7v160006Ev, symObjAddr: 0x3850, symBinAddr: 0x100006E70, symSize: 0x28 }
  - { offsetInCU: 0xF24A, offset: 0xF24A, size: 0x8, addend: 0x0, symName: __ZNSt3__122__compressed_pair_elemINS_21__map_node_destructorINS_9allocatorINS_11__tree_nodeINS_12__value_typeIibEEPvEEEEEELi1ELb0EE5__getB7v160006Ev, symObjAddr: 0x3878, symBinAddr: 0x100006E98, symSize: 0x14 }
  - { offsetInCU: 0xF270, offset: 0xF270, size: 0x8, addend: 0x0, symName: __ZNSt3__19allocatorINS_11__tree_nodeINS_12__value_typeIibEEPvEEE9constructB7v160006IbJEEEvPT_DpOT0_, symObjAddr: 0x388C, symBinAddr: 0x100006EAC, symSize: 0x1C }
  - { offsetInCU: 0xF2B2, offset: 0xF2B2, size: 0x8, addend: 0x0, symName: __ZNSt3__16__treeINS_12__value_typeIibEENS_19__map_value_compareIiS2_NS_4lessIiEELb1EEENS_9allocatorIS2_EEE4sizeB7v160006Ev, symObjAddr: 0x3BE8, symBinAddr: 0x100007208, symSize: 0x28 }
  - { offsetInCU: 0xF2D8, offset: 0xF2D8, size: 0x8, addend: 0x0, symName: __ZNKSt3__116__tree_node_baseIPvE15__parent_unsafeB7v160006Ev, symObjAddr: 0x3C10, symBinAddr: 0x100007230, symSize: 0x18 }
  - { offsetInCU: 0xF2FE, offset: 0xF2FE, size: 0x8, addend: 0x0, symName: __ZNSt3__116__tree_node_baseIPvE12__set_parentB7v160006EPS2_, symObjAddr: 0x3E0C, symBinAddr: 0x10000742C, symSize: 0x20 }
  - { offsetInCU: 0xF333, offset: 0xF333, size: 0x8, addend: 0x0, symName: __ZNSt3__117__compressed_pairImNS_19__map_value_compareIiNS_12__value_typeIibEENS_4lessIiEELb1EEEE5firstB7v160006Ev, symObjAddr: 0x3E2C, symBinAddr: 0x10000744C, symSize: 0x24 }
  - { offsetInCU: 0xF359, offset: 0xF359, size: 0x8, addend: 0x0, symName: __ZNSt3__122__compressed_pair_elemImLi0ELb0EE5__getB7v160006Ev, symObjAddr: 0x3E50, symBinAddr: 0x100007470, symSize: 0x14 }
  - { offsetInCU: 0xF37F, offset: 0xF37F, size: 0x8, addend: 0x0, symName: __ZNSt3__117__compressed_pairIPNS_11__tree_nodeINS_12__value_typeIibEEPvEENS_21__map_node_destructorINS_9allocatorIS5_EEEEE5firstB7v160006Ev, symObjAddr: 0x3E64, symBinAddr: 0x100007484, symSize: 0x24 }
  - { offsetInCU: 0xF3A5, offset: 0xF3A5, size: 0x8, addend: 0x0, symName: __ZNSt3__122__compressed_pair_elemIPNS_11__tree_nodeINS_12__value_typeIibEEPvEELi0ELb0EE5__getB7v160006Ev, symObjAddr: 0x3E88, symBinAddr: 0x1000074A8, symSize: 0x14 }
  - { offsetInCU: 0xF3CB, offset: 0xF3CB, size: 0x8, addend: 0x0, symName: __ZNSt3__110unique_ptrINS_11__tree_nodeINS_12__value_typeIibEEPvEENS_21__map_node_destructorINS_9allocatorIS5_EEEEED2B7v160006Ev, symObjAddr: 0x3E9C, symBinAddr: 0x1000074BC, symSize: 0x30 }
  - { offsetInCU: 0xF3F5, offset: 0xF3F5, size: 0x8, addend: 0x0, symName: __ZNSt3__110unique_ptrINS_11__tree_nodeINS_12__value_typeIibEEPvEENS_21__map_node_destructorINS_9allocatorIS5_EEEEE5resetB7v160006EPS5_, symObjAddr: 0x3ECC, symBinAddr: 0x1000074EC, symSize: 0x78 }
  - { offsetInCU: 0xF439, offset: 0xF439, size: 0x8, addend: 0x0, symName: __ZNSt3__121__map_node_destructorINS_9allocatorINS_11__tree_nodeINS_12__value_typeIibEEPvEEEEEclB7v160006EPS6_, symObjAddr: 0x3F44, symBinAddr: 0x100007564, symSize: 0xE4 }
  - { offsetInCU: 0xF46E, offset: 0xF46E, size: 0x8, addend: 0x0, symName: __ZNSt3__116allocator_traitsINS_9allocatorINS_11__tree_nodeINS_12__value_typeIibEEPvEEEEE7destroyB7v160006IbvvEEvRS7_PT_, symObjAddr: 0x4028, symBinAddr: 0x100007648, symSize: 0x14 }
  - { offsetInCU: 0xF4A8, offset: 0xF4A8, size: 0x8, addend: 0x0, symName: __ZNSt3__116allocator_traitsINS_9allocatorINS_11__tree_nodeINS_12__value_typeIibEEPvEEEEE7destroyB7v160006IKivvEEvRS7_PT_, symObjAddr: 0x403C, symBinAddr: 0x10000765C, symSize: 0x14 }
  - { offsetInCU: 0xF4E2, offset: 0xF4E2, size: 0x8, addend: 0x0, symName: __ZNKSt3__16__treeINS_12__value_typeIibEENS_19__map_value_compareIiS2_NS_4lessIiEELb1EEENS_9allocatorIS2_EEE14__count_uniqueIiEEmRKT_, symObjAddr: 0x4050, symBinAddr: 0x100007670, symSize: 0xC8 }
  - { offsetInCU: 0xF531, offset: 0xF531, size: 0x8, addend: 0x0, symName: __ZNKSt3__16__treeINS_12__value_typeIibEENS_19__map_value_compareIiS2_NS_4lessIiEELb1EEENS_9allocatorIS2_EEE10value_compB7v160006Ev, symObjAddr: 0x4118, symBinAddr: 0x100007738, symSize: 0x28 }
  - { offsetInCU: 0xF557, offset: 0xF557, size: 0x8, addend: 0x0, symName: __ZNKSt3__117__compressed_pairImNS_19__map_value_compareIiNS_12__value_typeIibEENS_4lessIiEELb1EEEE6secondB7v160006Ev, symObjAddr: 0x4140, symBinAddr: 0x100007760, symSize: 0x24 }
  - { offsetInCU: 0xF57D, offset: 0xF57D, size: 0x8, addend: 0x0, symName: __ZNKSt3__122__compressed_pair_elemINS_19__map_value_compareIiNS_12__value_typeIibEENS_4lessIiEELb1EEELi1ELb1EE5__getB7v160006Ev, symObjAddr: 0x4164, symBinAddr: 0x100007784, symSize: 0x14 }
...
